
/home/zmy/PA/ysyx-workbench/nanos-lite/build/nanos-lite-riscv64-nemu.elf:     file format elf64-littleriscv


Disassembly of section .text:

0000000080000000 <_start>:
    80000000:	00000413          	li	s0,0
    80000004:	00134117          	auipc	sp,0x134
    80000008:	ffc10113          	addi	sp,sp,-4 # 80134000 <_end>
    8000000c:	449000ef          	jal	ra,80000c54 <_trm_init>

0000000080000010 <main>:
    80000010:	ff010113          	addi	sp,sp,-16
    80000014:	00002597          	auipc	a1,0x2
    80000018:	03258593          	addi	a1,a1,50 # 80002046 <logo>
    8000001c:	00001517          	auipc	a0,0x1
    80000020:	60c50513          	addi	a0,a0,1548 # 80001628 <_etext+0x4>
    80000024:	00113423          	sd	ra,8(sp)
    80000028:	00813023          	sd	s0,0(sp)
    8000002c:	49c010ef          	jal	ra,800014c8 <printf>
    80000030:	00003417          	auipc	s0,0x3
    80000034:	af040413          	addi	s0,s0,-1296 # 80002b20 <__func__.0>
    80000038:	00040693          	mv	a3,s0
    8000003c:	00d00613          	li	a2,13
    80000040:	00001597          	auipc	a1,0x1
    80000044:	5f058593          	addi	a1,a1,1520 # 80001630 <_etext+0xc>
    80000048:	00001517          	auipc	a0,0x1
    8000004c:	62050513          	addi	a0,a0,1568 # 80001668 <_etext+0x44>
    80000050:	478010ef          	jal	ra,800014c8 <printf>
    80000054:	00001797          	auipc	a5,0x1
    80000058:	64c78793          	addi	a5,a5,1612 # 800016a0 <_etext+0x7c>
    8000005c:	00001717          	auipc	a4,0x1
    80000060:	65470713          	addi	a4,a4,1620 # 800016b0 <_etext+0x8c>
    80000064:	00e00613          	li	a2,14
    80000068:	00001597          	auipc	a1,0x1
    8000006c:	5c858593          	addi	a1,a1,1480 # 80001630 <_etext+0xc>
    80000070:	00040693          	mv	a3,s0
    80000074:	00001517          	auipc	a0,0x1
    80000078:	64c50513          	addi	a0,a0,1612 # 800016c0 <_etext+0x9c>
    8000007c:	44c010ef          	jal	ra,800014c8 <printf>
    80000080:	0c9000ef          	jal	ra,80000948 <init_mm>
    80000084:	734000ef          	jal	ra,800007b8 <init_device>
    80000088:	37d000ef          	jal	ra,80000c04 <init_ramdisk>
    8000008c:	031000ef          	jal	ra,800008bc <init_irq>
    80000090:	288000ef          	jal	ra,80000318 <init_fs>
    80000094:	065000ef          	jal	ra,800008f8 <init_proc>
    80000098:	00040693          	mv	a3,s0
    8000009c:	01e00613          	li	a2,30
    800000a0:	00001597          	auipc	a1,0x1
    800000a4:	59058593          	addi	a1,a1,1424 # 80001630 <_etext+0xc>
    800000a8:	00001517          	auipc	a0,0x1
    800000ac:	64850513          	addi	a0,a0,1608 # 800016f0 <_etext+0xcc>
    800000b0:	418010ef          	jal	ra,800014c8 <printf>
    800000b4:	7e1000ef          	jal	ra,80001094 <yield>
    800000b8:	00040693          	mv	a3,s0
    800000bc:	02400613          	li	a2,36
    800000c0:	00001597          	auipc	a1,0x1
    800000c4:	57058593          	addi	a1,a1,1392 # 80001630 <_etext+0xc>
    800000c8:	00001517          	auipc	a0,0x1
    800000cc:	65850513          	addi	a0,a0,1624 # 80001720 <_etext+0xfc>
    800000d0:	3f8010ef          	jal	ra,800014c8 <printf>
    800000d4:	00100513          	li	a0,1
    800000d8:	371000ef          	jal	ra,80000c48 <halt>

00000000800000dc <naive_uload>:
    800000dc:	fc010113          	addi	sp,sp,-64
    800000e0:	00058713          	mv	a4,a1
    800000e4:	00001697          	auipc	a3,0x1
    800000e8:	7ac68693          	addi	a3,a3,1964 # 80001890 <__func__.1>
    800000ec:	02813823          	sd	s0,48(sp)
    800000f0:	04400613          	li	a2,68
    800000f4:	00058413          	mv	s0,a1
    800000f8:	00001517          	auipc	a0,0x1
    800000fc:	6a850513          	addi	a0,a0,1704 # 800017a0 <_etext+0x17c>
    80000100:	00001597          	auipc	a1,0x1
    80000104:	66858593          	addi	a1,a1,1640 # 80001768 <_etext+0x144>
    80000108:	02113c23          	sd	ra,56(sp)
    8000010c:	02913423          	sd	s1,40(sp)
    80000110:	01413823          	sd	s4,16(sp)
    80000114:	01513423          	sd	s5,8(sp)
    80000118:	03213023          	sd	s2,32(sp)
    8000011c:	01313c23          	sd	s3,24(sp)
    80000120:	01613023          	sd	s6,0(sp)
    80000124:	3a4010ef          	jal	ra,800014c8 <printf>
    80000128:	00000613          	li	a2,0
    8000012c:	00000593          	li	a1,0
    80000130:	00040513          	mv	a0,s0
    80000134:	218000ef          	jal	ra,8000034c <fs_open>
    80000138:	00000613          	li	a2,0
    8000013c:	00000593          	li	a1,0
    80000140:	00050a13          	mv	s4,a0
    80000144:	424000ef          	jal	ra,80000568 <fs_lseek>
    80000148:	000a8a97          	auipc	s5,0xa8
    8000014c:	eb8a8a93          	addi	s5,s5,-328 # 800a8000 <buffer_tmp>
    80000150:	00003797          	auipc	a5,0x3
    80000154:	9f178793          	addi	a5,a5,-1551 # 80002b41 <ramdisk_start>
    80000158:	000a6617          	auipc	a2,0xa6
    8000015c:	3e960613          	addi	a2,a2,1001 # 800a6541 <_data>
    80000160:	40f60633          	sub	a2,a2,a5
    80000164:	000a8593          	mv	a1,s5
    80000168:	000a0513          	mv	a0,s4
    8000016c:	29c000ef          	jal	ra,80000408 <fs_read>
    80000170:	000aa703          	lw	a4,0(s5)
    80000174:	464c47b7          	lui	a5,0x464c4
    80000178:	57f78793          	addi	a5,a5,1407 # 464c457f <_entry_offset+0x464c457f>
    8000017c:	020ab483          	ld	s1,32(s5)
    80000180:	0ef71863          	bne	a4,a5,80000270 <naive_uload+0x194>
    80000184:	012ad703          	lhu	a4,18(s5)
    80000188:	0f300793          	li	a5,243
    8000018c:	10f71a63          	bne	a4,a5,800002a0 <naive_uload+0x1c4>
    80000190:	038ad783          	lhu	a5,56(s5)
    80000194:	08078063          	beqz	a5,80000214 <naive_uload+0x138>
    80000198:	fff7879b          	addiw	a5,a5,-1
    8000019c:	03079793          	slli	a5,a5,0x30
    800001a0:	0307d793          	srli	a5,a5,0x30
    800001a4:	00379913          	slli	s2,a5,0x3
    800001a8:	009a84b3          	add	s1,s5,s1
    800001ac:	40f90933          	sub	s2,s2,a5
    800001b0:	03848413          	addi	s0,s1,56
    800001b4:	00391913          	slli	s2,s2,0x3
    800001b8:	01240933          	add	s2,s0,s2
    800001bc:	00100993          	li	s3,1
    800001c0:	0100006f          	j	800001d0 <naive_uload+0xf4>
    800001c4:	00040493          	mv	s1,s0
    800001c8:	05240663          	beq	s0,s2,80000214 <naive_uload+0x138>
    800001cc:	03840413          	addi	s0,s0,56
    800001d0:	0004a783          	lw	a5,0(s1)
    800001d4:	ff3798e3          	bne	a5,s3,800001c4 <naive_uload+0xe8>
    800001d8:	0184bb03          	ld	s6,24(s1)
    800001dc:	0284b603          	ld	a2,40(s1)
    800001e0:	00000593          	li	a1,0
    800001e4:	000b0513          	mv	a0,s6
    800001e8:	08c010ef          	jal	ra,80001274 <memset>
    800001ec:	0084b583          	ld	a1,8(s1)
    800001f0:	00000613          	li	a2,0
    800001f4:	000a0513          	mv	a0,s4
    800001f8:	370000ef          	jal	ra,80000568 <fs_lseek>
    800001fc:	0204b603          	ld	a2,32(s1)
    80000200:	000b0593          	mv	a1,s6
    80000204:	000a0513          	mv	a0,s4
    80000208:	200000ef          	jal	ra,80000408 <fs_read>
    8000020c:	00040493          	mv	s1,s0
    80000210:	fb241ee3          	bne	s0,s2,800001cc <naive_uload+0xf0>
    80000214:	000a0513          	mv	a0,s4
    80000218:	3f4000ef          	jal	ra,8000060c <fs_close>
    8000021c:	018ab403          	ld	s0,24(s5)
    80000220:	00001697          	auipc	a3,0x1
    80000224:	67068693          	addi	a3,a3,1648 # 80001890 <__func__.1>
    80000228:	04600613          	li	a2,70
    8000022c:	00040713          	mv	a4,s0
    80000230:	00001597          	auipc	a1,0x1
    80000234:	53858593          	addi	a1,a1,1336 # 80001768 <_etext+0x144>
    80000238:	00001517          	auipc	a0,0x1
    8000023c:	62850513          	addi	a0,a0,1576 # 80001860 <_etext+0x23c>
    80000240:	288010ef          	jal	ra,800014c8 <printf>
    80000244:	00040793          	mv	a5,s0
    80000248:	03013403          	ld	s0,48(sp)
    8000024c:	03813083          	ld	ra,56(sp)
    80000250:	02813483          	ld	s1,40(sp)
    80000254:	02013903          	ld	s2,32(sp)
    80000258:	01813983          	ld	s3,24(sp)
    8000025c:	01013a03          	ld	s4,16(sp)
    80000260:	00813a83          	ld	s5,8(sp)
    80000264:	00013b03          	ld	s6,0(sp)
    80000268:	04010113          	addi	sp,sp,64
    8000026c:	00078067          	jr	a5
    80000270:	00001717          	auipc	a4,0x1
    80000274:	55870713          	addi	a4,a4,1368 # 800017c8 <_etext+0x1a4>
    80000278:	00003697          	auipc	a3,0x3
    8000027c:	8b068693          	addi	a3,a3,-1872 # 80002b28 <__func__.0>
    80000280:	02a00613          	li	a2,42
    80000284:	00001597          	auipc	a1,0x1
    80000288:	4e458593          	addi	a1,a1,1252 # 80001768 <_etext+0x144>
    8000028c:	00001517          	auipc	a0,0x1
    80000290:	56c50513          	addi	a0,a0,1388 # 800017f8 <_etext+0x1d4>
    80000294:	234010ef          	jal	ra,800014c8 <printf>
    80000298:	00100513          	li	a0,1
    8000029c:	1ad000ef          	jal	ra,80000c48 <halt>
    800002a0:	00001717          	auipc	a4,0x1
    800002a4:	5a070713          	addi	a4,a4,1440 # 80001840 <_etext+0x21c>
    800002a8:	00003697          	auipc	a3,0x3
    800002ac:	88068693          	addi	a3,a3,-1920 # 80002b28 <__func__.0>
    800002b0:	02b00613          	li	a2,43
    800002b4:	fd1ff06f          	j	80000284 <naive_uload+0x1a8>

00000000800002b8 <invalid_read>:
    800002b8:	ff010113          	addi	sp,sp,-16
    800002bc:	00002697          	auipc	a3,0x2
    800002c0:	96c68693          	addi	a3,a3,-1684 # 80001c28 <__func__.2>
    800002c4:	02600613          	li	a2,38
    800002c8:	00001597          	auipc	a1,0x1
    800002cc:	5d858593          	addi	a1,a1,1496 # 800018a0 <__func__.1+0x10>
    800002d0:	00001517          	auipc	a0,0x1
    800002d4:	60050513          	addi	a0,a0,1536 # 800018d0 <__func__.1+0x40>
    800002d8:	00113423          	sd	ra,8(sp)
    800002dc:	1ec010ef          	jal	ra,800014c8 <printf>
    800002e0:	00100513          	li	a0,1
    800002e4:	165000ef          	jal	ra,80000c48 <halt>

00000000800002e8 <invalid_write>:
    800002e8:	ff010113          	addi	sp,sp,-16
    800002ec:	00002697          	auipc	a3,0x2
    800002f0:	92c68693          	addi	a3,a3,-1748 # 80001c18 <__func__.1>
    800002f4:	02c00613          	li	a2,44
    800002f8:	00001597          	auipc	a1,0x1
    800002fc:	5a858593          	addi	a1,a1,1448 # 800018a0 <__func__.1+0x10>
    80000300:	00001517          	auipc	a0,0x1
    80000304:	5d050513          	addi	a0,a0,1488 # 800018d0 <__func__.1+0x40>
    80000308:	00113423          	sd	ra,8(sp)
    8000030c:	1bc010ef          	jal	ra,800014c8 <printf>
    80000310:	00100513          	li	a0,1
    80000314:	135000ef          	jal	ra,80000c48 <halt>

0000000080000318 <init_fs>:
    80000318:	fe010113          	addi	sp,sp,-32
    8000031c:	00010513          	mv	a0,sp
    80000320:	00113c23          	sd	ra,24(sp)
    80000324:	381000ef          	jal	ra,80000ea4 <__am_gpu_config>
    80000328:	00412703          	lw	a4,4(sp)
    8000032c:	00812783          	lw	a5,8(sp)
    80000330:	01813083          	ld	ra,24(sp)
    80000334:	02e787bb          	mulw	a5,a5,a4
    80000338:	0027979b          	slliw	a5,a5,0x2
    8000033c:	000a6717          	auipc	a4,0xa6
    80000340:	2af73223          	sd	a5,676(a4) # 800a65e0 <file_table+0x98>
    80000344:	02010113          	addi	sp,sp,32
    80000348:	00008067          	ret

000000008000034c <fs_open>:
    8000034c:	fd010113          	addi	sp,sp,-48
    80000350:	01313423          	sd	s3,8(sp)
    80000354:	000a6997          	auipc	s3,0xa6
    80000358:	1f498993          	addi	s3,s3,500 # 800a6548 <file_table>
    8000035c:	0009b583          	ld	a1,0(s3)
    80000360:	02113423          	sd	ra,40(sp)
    80000364:	02813023          	sd	s0,32(sp)
    80000368:	00913c23          	sd	s1,24(sp)
    8000036c:	01213823          	sd	s2,16(sp)
    80000370:	06058463          	beqz	a1,800003d8 <fs_open+0x8c>
    80000374:	00050913          	mv	s2,a0
    80000378:	000a6417          	auipc	s0,0xa6
    8000037c:	20040413          	addi	s0,s0,512 # 800a6578 <file_table+0x30>
    80000380:	00000493          	li	s1,0
    80000384:	0140006f          	j	80000398 <fs_open+0x4c>
    80000388:	00043583          	ld	a1,0(s0)
    8000038c:	0014849b          	addiw	s1,s1,1
    80000390:	03040413          	addi	s0,s0,48
    80000394:	04058263          	beqz	a1,800003d8 <fs_open+0x8c>
    80000398:	00090513          	mv	a0,s2
    8000039c:	691000ef          	jal	ra,8000122c <strcmp>
    800003a0:	fe0514e3          	bnez	a0,80000388 <fs_open+0x3c>
    800003a4:	00149793          	slli	a5,s1,0x1
    800003a8:	009787b3          	add	a5,a5,s1
    800003ac:	02813083          	ld	ra,40(sp)
    800003b0:	02013403          	ld	s0,32(sp)
    800003b4:	00479793          	slli	a5,a5,0x4
    800003b8:	00f989b3          	add	s3,s3,a5
    800003bc:	0209b423          	sd	zero,40(s3)
    800003c0:	01013903          	ld	s2,16(sp)
    800003c4:	00813983          	ld	s3,8(sp)
    800003c8:	00048513          	mv	a0,s1
    800003cc:	01813483          	ld	s1,24(sp)
    800003d0:	03010113          	addi	sp,sp,48
    800003d4:	00008067          	ret
    800003d8:	00001717          	auipc	a4,0x1
    800003dc:	54070713          	addi	a4,a4,1344 # 80001918 <__func__.1+0x88>
    800003e0:	00002697          	auipc	a3,0x2
    800003e4:	75068693          	addi	a3,a3,1872 # 80002b30 <__func__.0>
    800003e8:	04700613          	li	a2,71
    800003ec:	00001597          	auipc	a1,0x1
    800003f0:	4b458593          	addi	a1,a1,1204 # 800018a0 <__func__.1+0x10>
    800003f4:	00001517          	auipc	a0,0x1
    800003f8:	40450513          	addi	a0,a0,1028 # 800017f8 <_etext+0x1d4>
    800003fc:	0cc010ef          	jal	ra,800014c8 <printf>
    80000400:	00100513          	li	a0,1
    80000404:	045000ef          	jal	ra,80000c48 <halt>

0000000080000408 <fs_read>:
    80000408:	fd010113          	addi	sp,sp,-48
    8000040c:	00913c23          	sd	s1,24(sp)
    80000410:	00151493          	slli	s1,a0,0x1
    80000414:	02813023          	sd	s0,32(sp)
    80000418:	00a48433          	add	s0,s1,a0
    8000041c:	01313423          	sd	s3,8(sp)
    80000420:	00441413          	slli	s0,s0,0x4
    80000424:	000a6997          	auipc	s3,0xa6
    80000428:	12498993          	addi	s3,s3,292 # 800a6548 <file_table>
    8000042c:	00898433          	add	s0,s3,s0
    80000430:	01843703          	ld	a4,24(s0)
    80000434:	01213823          	sd	s2,16(sp)
    80000438:	02113423          	sd	ra,40(sp)
    8000043c:	00050913          	mv	s2,a0
    80000440:	00058513          	mv	a0,a1
    80000444:	02843583          	ld	a1,40(s0)
    80000448:	04070063          	beqz	a4,80000488 <fs_read+0x80>
    8000044c:	000700e7          	jalr	a4
    80000450:	02843783          	ld	a5,40(s0)
    80000454:	0005051b          	sext.w	a0,a0
    80000458:	00f507b3          	add	a5,a0,a5
    8000045c:	012484b3          	add	s1,s1,s2
    80000460:	02813083          	ld	ra,40(sp)
    80000464:	02013403          	ld	s0,32(sp)
    80000468:	00449493          	slli	s1,s1,0x4
    8000046c:	009989b3          	add	s3,s3,s1
    80000470:	02f9b423          	sd	a5,40(s3)
    80000474:	01813483          	ld	s1,24(sp)
    80000478:	01013903          	ld	s2,16(sp)
    8000047c:	00813983          	ld	s3,8(sp)
    80000480:	03010113          	addi	sp,sp,48
    80000484:	00008067          	ret
    80000488:	00060793          	mv	a5,a2
    8000048c:	00843603          	ld	a2,8(s0)
    80000490:	40b60633          	sub	a2,a2,a1
    80000494:	00c7f463          	bgeu	a5,a2,8000049c <fs_read+0x94>
    80000498:	00078613          	mv	a2,a5
    8000049c:	01248433          	add	s0,s1,s2
    800004a0:	00441413          	slli	s0,s0,0x4
    800004a4:	00898433          	add	s0,s3,s0
    800004a8:	01043783          	ld	a5,16(s0)
    800004ac:	00f585b3          	add	a1,a1,a5
    800004b0:	65c000ef          	jal	ra,80000b0c <ramdisk_read>
    800004b4:	02843783          	ld	a5,40(s0)
    800004b8:	00f507b3          	add	a5,a0,a5
    800004bc:	fa1ff06f          	j	8000045c <fs_read+0x54>

00000000800004c0 <fs_write>:
    800004c0:	fd010113          	addi	sp,sp,-48
    800004c4:	00913c23          	sd	s1,24(sp)
    800004c8:	00151493          	slli	s1,a0,0x1
    800004cc:	02813023          	sd	s0,32(sp)
    800004d0:	00a48433          	add	s0,s1,a0
    800004d4:	01313423          	sd	s3,8(sp)
    800004d8:	00441413          	slli	s0,s0,0x4
    800004dc:	000a6997          	auipc	s3,0xa6
    800004e0:	06c98993          	addi	s3,s3,108 # 800a6548 <file_table>
    800004e4:	00898433          	add	s0,s3,s0
    800004e8:	02043783          	ld	a5,32(s0)
    800004ec:	01213823          	sd	s2,16(sp)
    800004f0:	01413023          	sd	s4,0(sp)
    800004f4:	02113423          	sd	ra,40(sp)
    800004f8:	00050913          	mv	s2,a0
    800004fc:	00060a13          	mv	s4,a2
    80000500:	00058513          	mv	a0,a1
    80000504:	02843583          	ld	a1,40(s0)
    80000508:	04078463          	beqz	a5,80000550 <fs_write+0x90>
    8000050c:	000780e7          	jalr	a5
    80000510:	02843703          	ld	a4,40(s0)
    80000514:	0005079b          	sext.w	a5,a0
    80000518:	00e787b3          	add	a5,a5,a4
    8000051c:	012484b3          	add	s1,s1,s2
    80000520:	02813083          	ld	ra,40(sp)
    80000524:	02013403          	ld	s0,32(sp)
    80000528:	00449493          	slli	s1,s1,0x4
    8000052c:	009989b3          	add	s3,s3,s1
    80000530:	02f9b423          	sd	a5,40(s3)
    80000534:	01813483          	ld	s1,24(sp)
    80000538:	01013903          	ld	s2,16(sp)
    8000053c:	00813983          	ld	s3,8(sp)
    80000540:	000a0513          	mv	a0,s4
    80000544:	00013a03          	ld	s4,0(sp)
    80000548:	03010113          	addi	sp,sp,48
    8000054c:	00008067          	ret
    80000550:	01043783          	ld	a5,16(s0)
    80000554:	00f585b3          	add	a1,a1,a5
    80000558:	62c000ef          	jal	ra,80000b84 <ramdisk_write>
    8000055c:	02843783          	ld	a5,40(s0)
    80000560:	00fa07b3          	add	a5,s4,a5
    80000564:	fb9ff06f          	j	8000051c <fs_write+0x5c>

0000000080000568 <fs_lseek>:
    80000568:	02061463          	bnez	a2,80000590 <fs_lseek+0x28>
    8000056c:	00151793          	slli	a5,a0,0x1
    80000570:	00a787b3          	add	a5,a5,a0
    80000574:	000a6717          	auipc	a4,0xa6
    80000578:	fd470713          	addi	a4,a4,-44 # 800a6548 <file_table>
    8000057c:	00479793          	slli	a5,a5,0x4
    80000580:	00f707b3          	add	a5,a4,a5
    80000584:	02b7b423          	sd	a1,40(a5)
    80000588:	00058513          	mv	a0,a1
    8000058c:	00008067          	ret
    80000590:	00100793          	li	a5,1
    80000594:	02f60663          	beq	a2,a5,800005c0 <fs_lseek+0x58>
    80000598:	00200793          	li	a5,2
    8000059c:	04f60663          	beq	a2,a5,800005e8 <fs_lseek+0x80>
    800005a0:	00151793          	slli	a5,a0,0x1
    800005a4:	00a787b3          	add	a5,a5,a0
    800005a8:	000a6717          	auipc	a4,0xa6
    800005ac:	fa070713          	addi	a4,a4,-96 # 800a6548 <file_table>
    800005b0:	00479793          	slli	a5,a5,0x4
    800005b4:	00f707b3          	add	a5,a4,a5
    800005b8:	0287b503          	ld	a0,40(a5)
    800005bc:	00008067          	ret
    800005c0:	00151793          	slli	a5,a0,0x1
    800005c4:	00a787b3          	add	a5,a5,a0
    800005c8:	000a6717          	auipc	a4,0xa6
    800005cc:	f8070713          	addi	a4,a4,-128 # 800a6548 <file_table>
    800005d0:	00479793          	slli	a5,a5,0x4
    800005d4:	00f707b3          	add	a5,a4,a5
    800005d8:	0287b703          	ld	a4,40(a5)
    800005dc:	00e58533          	add	a0,a1,a4
    800005e0:	02a7b423          	sd	a0,40(a5)
    800005e4:	00008067          	ret
    800005e8:	00151793          	slli	a5,a0,0x1
    800005ec:	00a787b3          	add	a5,a5,a0
    800005f0:	000a6717          	auipc	a4,0xa6
    800005f4:	f5870713          	addi	a4,a4,-168 # 800a6548 <file_table>
    800005f8:	00479793          	slli	a5,a5,0x4
    800005fc:	00f707b3          	add	a5,a4,a5
    80000600:	0087b503          	ld	a0,8(a5)
    80000604:	02a7b423          	sd	a0,40(a5)
    80000608:	00008067          	ret

000000008000060c <fs_close>:
    8000060c:	00000513          	li	a0,0
    80000610:	00008067          	ret

0000000080000614 <serial_write>:
    80000614:	04060263          	beqz	a2,80000658 <serial_write+0x44>
    80000618:	fe010113          	addi	sp,sp,-32
    8000061c:	00813823          	sd	s0,16(sp)
    80000620:	00913423          	sd	s1,8(sp)
    80000624:	00113c23          	sd	ra,24(sp)
    80000628:	00050413          	mv	s0,a0
    8000062c:	00c504b3          	add	s1,a0,a2
    80000630:	00044503          	lbu	a0,0(s0)
    80000634:	00140413          	addi	s0,s0,1
    80000638:	600000ef          	jal	ra,80000c38 <putch>
    8000063c:	fe941ae3          	bne	s0,s1,80000630 <serial_write+0x1c>
    80000640:	01813083          	ld	ra,24(sp)
    80000644:	01013403          	ld	s0,16(sp)
    80000648:	00813483          	ld	s1,8(sp)
    8000064c:	00000513          	li	a0,0
    80000650:	02010113          	addi	sp,sp,32
    80000654:	00008067          	ret
    80000658:	00000513          	li	a0,0
    8000065c:	00008067          	ret

0000000080000660 <events_read>:
    80000660:	fe010113          	addi	sp,sp,-32
    80000664:	00813823          	sd	s0,16(sp)
    80000668:	00810593          	addi	a1,sp,8
    8000066c:	00050413          	mv	s0,a0
    80000670:	00800513          	li	a0,8
    80000674:	00113c23          	sd	ra,24(sp)
    80000678:	6ec000ef          	jal	ra,80000d64 <ioe_read>
    8000067c:	00c12783          	lw	a5,12(sp)
    80000680:	00814703          	lbu	a4,8(sp)
    80000684:	00000513          	li	a0,0
    80000688:	02078a63          	beqz	a5,800006bc <events_read+0x5c>
    8000068c:	00001617          	auipc	a2,0x1
    80000690:	5ac60613          	addi	a2,a2,1452 # 80001c38 <__func__.2+0x10>
    80000694:	02070c63          	beqz	a4,800006cc <events_read+0x6c>
    80000698:	00379793          	slli	a5,a5,0x3
    8000069c:	000a6717          	auipc	a4,0xa6
    800006a0:	44c70713          	addi	a4,a4,1100 # 800a6ae8 <keyname>
    800006a4:	00f707b3          	add	a5,a4,a5
    800006a8:	0007b683          	ld	a3,0(a5)
    800006ac:	00001597          	auipc	a1,0x1
    800006b0:	59c58593          	addi	a1,a1,1436 # 80001c48 <__func__.2+0x20>
    800006b4:	00040513          	mv	a0,s0
    800006b8:	5d5000ef          	jal	ra,8000148c <sprintf>
    800006bc:	01813083          	ld	ra,24(sp)
    800006c0:	01013403          	ld	s0,16(sp)
    800006c4:	02010113          	addi	sp,sp,32
    800006c8:	00008067          	ret
    800006cc:	00001617          	auipc	a2,0x1
    800006d0:	57460613          	addi	a2,a2,1396 # 80001c40 <__func__.2+0x18>
    800006d4:	fc5ff06f          	j	80000698 <events_read+0x38>

00000000800006d8 <dispinfo_read>:
    800006d8:	fd010113          	addi	sp,sp,-48
    800006dc:	02813023          	sd	s0,32(sp)
    800006e0:	00050413          	mv	s0,a0
    800006e4:	00010513          	mv	a0,sp
    800006e8:	02113423          	sd	ra,40(sp)
    800006ec:	00913c23          	sd	s1,24(sp)
    800006f0:	7b4000ef          	jal	ra,80000ea4 <__am_gpu_config>
    800006f4:	00812683          	lw	a3,8(sp)
    800006f8:	00412603          	lw	a2,4(sp)
    800006fc:	00001597          	auipc	a1,0x1
    80000700:	55458593          	addi	a1,a1,1364 # 80001c50 <__func__.2+0x28>
    80000704:	00040513          	mv	a0,s0
    80000708:	585000ef          	jal	ra,8000148c <sprintf>
    8000070c:	00050493          	mv	s1,a0
    80000710:	00040713          	mv	a4,s0
    80000714:	00002697          	auipc	a3,0x2
    80000718:	92468693          	addi	a3,a3,-1756 # 80002038 <__func__.1>
    8000071c:	02a00613          	li	a2,42
    80000720:	00001597          	auipc	a1,0x1
    80000724:	54858593          	addi	a1,a1,1352 # 80001c68 <__func__.2+0x40>
    80000728:	00001517          	auipc	a0,0x1
    8000072c:	57850513          	addi	a0,a0,1400 # 80001ca0 <__func__.2+0x78>
    80000730:	599000ef          	jal	ra,800014c8 <printf>
    80000734:	02813083          	ld	ra,40(sp)
    80000738:	02013403          	ld	s0,32(sp)
    8000073c:	00048513          	mv	a0,s1
    80000740:	01813483          	ld	s1,24(sp)
    80000744:	03010113          	addi	sp,sp,48
    80000748:	00008067          	ret

000000008000074c <fb_write>:
    8000074c:	fd010113          	addi	sp,sp,-48
    80000750:	000107b7          	lui	a5,0x10
    80000754:	02813023          	sd	s0,32(sp)
    80000758:	fff78793          	addi	a5,a5,-1 # ffff <_entry_offset+0xffff>
    8000075c:	00060413          	mv	s0,a2
    80000760:	0205d693          	srli	a3,a1,0x20
    80000764:	02065713          	srli	a4,a2,0x20
    80000768:	00f6f6b3          	and	a3,a3,a5
    8000076c:	00f5f5b3          	and	a1,a1,a5
    80000770:	00f77733          	and	a4,a4,a5
    80000774:	00f477b3          	and	a5,s0,a5
    80000778:	00050613          	mv	a2,a0
    8000077c:	00f12a23          	sw	a5,20(sp)
    80000780:	00010513          	mv	a0,sp
    80000784:	00100793          	li	a5,1
    80000788:	02113423          	sd	ra,40(sp)
    8000078c:	00d12023          	sw	a3,0(sp)
    80000790:	00b12223          	sw	a1,4(sp)
    80000794:	00e12823          	sw	a4,16(sp)
    80000798:	00c13423          	sd	a2,8(sp)
    8000079c:	00f10c23          	sb	a5,24(sp)
    800007a0:	72c000ef          	jal	ra,80000ecc <__am_gpu_fbdraw>
    800007a4:	02813083          	ld	ra,40(sp)
    800007a8:	00040513          	mv	a0,s0
    800007ac:	02013403          	ld	s0,32(sp)
    800007b0:	03010113          	addi	sp,sp,48
    800007b4:	00008067          	ret

00000000800007b8 <init_device>:
    800007b8:	fe010113          	addi	sp,sp,-32
    800007bc:	00813823          	sd	s0,16(sp)
    800007c0:	00002417          	auipc	s0,0x2
    800007c4:	86840413          	addi	s0,s0,-1944 # 80002028 <__func__.0>
    800007c8:	00040693          	mv	a3,s0
    800007cc:	03d00613          	li	a2,61
    800007d0:	00001597          	auipc	a1,0x1
    800007d4:	49858593          	addi	a1,a1,1176 # 80001c68 <__func__.2+0x40>
    800007d8:	00001517          	auipc	a0,0x1
    800007dc:	4f050513          	addi	a0,a0,1264 # 80001cc8 <__func__.2+0xa0>
    800007e0:	00113c23          	sd	ra,24(sp)
    800007e4:	4e5000ef          	jal	ra,800014c8 <printf>
    800007e8:	520000ef          	jal	ra,80000d08 <ioe_init>
    800007ec:	644000ef          	jal	ra,80000e30 <__am_gpu_init>
    800007f0:	00040693          	mv	a3,s0
    800007f4:	04000613          	li	a2,64
    800007f8:	00001597          	auipc	a1,0x1
    800007fc:	47058593          	addi	a1,a1,1136 # 80001c68 <__func__.2+0x40>
    80000800:	00001517          	auipc	a0,0x1
    80000804:	4f850513          	addi	a0,a0,1272 # 80001cf8 <__func__.2+0xd0>
    80000808:	4c1000ef          	jal	ra,800014c8 <printf>
    8000080c:	00010513          	mv	a0,sp
    80000810:	694000ef          	jal	ra,80000ea4 <__am_gpu_config>
    80000814:	00412703          	lw	a4,4(sp)
    80000818:	00812783          	lw	a5,8(sp)
    8000081c:	00040693          	mv	a3,s0
    80000820:	04500613          	li	a2,69
    80000824:	00001597          	auipc	a1,0x1
    80000828:	44458593          	addi	a1,a1,1092 # 80001c68 <__func__.2+0x40>
    8000082c:	00001517          	auipc	a0,0x1
    80000830:	50450513          	addi	a0,a0,1284 # 80001d30 <__func__.2+0x108>
    80000834:	0012b817          	auipc	a6,0x12b
    80000838:	00e82823          	sw	a4,16(a6) # 8012b844 <screen_w>
    8000083c:	0012b717          	auipc	a4,0x12b
    80000840:	00f72223          	sw	a5,4(a4) # 8012b840 <screen_h>
    80000844:	485000ef          	jal	ra,800014c8 <printf>
    80000848:	01813083          	ld	ra,24(sp)
    8000084c:	01013403          	ld	s0,16(sp)
    80000850:	02010113          	addi	sp,sp,32
    80000854:	00008067          	ret

0000000080000858 <do_event>:
    80000858:	00052703          	lw	a4,0(a0)
    8000085c:	ff010113          	addi	sp,sp,-16
    80000860:	00113423          	sd	ra,8(sp)
    80000864:	00813023          	sd	s0,0(sp)
    80000868:	00100793          	li	a5,1
    8000086c:	fff7069b          	addiw	a3,a4,-1
    80000870:	02d7e263          	bltu	a5,a3,80000894 <do_event+0x3c>
    80000874:	00058513          	mv	a0,a1
    80000878:	00058413          	mv	s0,a1
    8000087c:	108000ef          	jal	ra,80000984 <do_syscall>
    80000880:	00813083          	ld	ra,8(sp)
    80000884:	00040513          	mv	a0,s0
    80000888:	00013403          	ld	s0,0(sp)
    8000088c:	01010113          	addi	sp,sp,16
    80000890:	00008067          	ret
    80000894:	00002697          	auipc	a3,0x2
    80000898:	dfc68693          	addi	a3,a3,-516 # 80002690 <__func__.0>
    8000089c:	00e00613          	li	a2,14
    800008a0:	00002597          	auipc	a1,0x2
    800008a4:	d2858593          	addi	a1,a1,-728 # 800025c8 <logo+0x582>
    800008a8:	00002517          	auipc	a0,0x2
    800008ac:	d5850513          	addi	a0,a0,-680 # 80002600 <logo+0x5ba>
    800008b0:	419000ef          	jal	ra,800014c8 <printf>
    800008b4:	00100513          	li	a0,1
    800008b8:	390000ef          	jal	ra,80000c48 <halt>

00000000800008bc <init_irq>:
    800008bc:	ff010113          	addi	sp,sp,-16
    800008c0:	00002697          	auipc	a3,0x2
    800008c4:	de068693          	addi	a3,a3,-544 # 800026a0 <__func__.1>
    800008c8:	01500613          	li	a2,21
    800008cc:	00002597          	auipc	a1,0x2
    800008d0:	cfc58593          	addi	a1,a1,-772 # 800025c8 <logo+0x582>
    800008d4:	00002517          	auipc	a0,0x2
    800008d8:	d7450513          	addi	a0,a0,-652 # 80002648 <logo+0x602>
    800008dc:	00113423          	sd	ra,8(sp)
    800008e0:	3e9000ef          	jal	ra,800014c8 <printf>
    800008e4:	00813083          	ld	ra,8(sp)
    800008e8:	00000517          	auipc	a0,0x0
    800008ec:	f7050513          	addi	a0,a0,-144 # 80000858 <do_event>
    800008f0:	01010113          	addi	sp,sp,16
    800008f4:	7800006f          	j	80001074 <cte_init>

00000000800008f8 <init_proc>:
    800008f8:	ff010113          	addi	sp,sp,-16
    800008fc:	00002597          	auipc	a1,0x2
    80000900:	db458593          	addi	a1,a1,-588 # 800026b0 <__func__.1+0x10>
    80000904:	00122797          	auipc	a5,0x122
    80000908:	6fc78793          	addi	a5,a5,1788 # 80123000 <pcb_boot>
    8000090c:	00002697          	auipc	a3,0x2
    80000910:	e6c68693          	addi	a3,a3,-404 # 80002778 <__func__.0>
    80000914:	01900613          	li	a2,25
    80000918:	00002517          	auipc	a0,0x2
    8000091c:	e2850513          	addi	a0,a0,-472 # 80002740 <__func__.1+0xa0>
    80000920:	00113423          	sd	ra,8(sp)
    80000924:	0012b717          	auipc	a4,0x12b
    80000928:	f2f73223          	sd	a5,-220(a4) # 8012b848 <current>
    8000092c:	39d000ef          	jal	ra,800014c8 <printf>
    80000930:	00813083          	ld	ra,8(sp)
    80000934:	00001597          	auipc	a1,0x1
    80000938:	28458593          	addi	a1,a1,644 # 80001bb8 <__func__.1+0x328>
    8000093c:	00000513          	li	a0,0
    80000940:	01010113          	addi	sp,sp,16
    80000944:	f98ff06f          	j	800000dc <naive_uload>

0000000080000948 <init_mm>:
    80000948:	00001737          	lui	a4,0x1
    8000094c:	fff70713          	addi	a4,a4,-1 # fff <_entry_offset+0xfff>
    80000950:	000a7797          	auipc	a5,0xa7
    80000954:	9987b783          	ld	a5,-1640(a5) # 800a72e8 <heap>
    80000958:	00e787b3          	add	a5,a5,a4
    8000095c:	fffff737          	lui	a4,0xfffff
    80000960:	00e7f733          	and	a4,a5,a4
    80000964:	00002697          	auipc	a3,0x2
    80000968:	1d468693          	addi	a3,a3,468 # 80002b38 <__func__.0>
    8000096c:	01a00613          	li	a2,26
    80000970:	00002597          	auipc	a1,0x2
    80000974:	e1858593          	addi	a1,a1,-488 # 80002788 <__func__.0+0x10>
    80000978:	00002517          	auipc	a0,0x2
    8000097c:	e8050513          	addi	a0,a0,-384 # 800027f8 <__func__.0+0x80>
    80000980:	3490006f          	j	800014c8 <printf>

0000000080000984 <do_syscall>:
    80000984:	08853703          	ld	a4,136(a0)
    80000988:	fe010113          	addi	sp,sp,-32
    8000098c:	00813823          	sd	s0,16(sp)
    80000990:	00113c23          	sd	ra,24(sp)
    80000994:	00050413          	mv	s0,a0
    80000998:	01300793          	li	a5,19
    8000099c:	05053503          	ld	a0,80(a0)
    800009a0:	05843583          	ld	a1,88(s0)
    800009a4:	06043603          	ld	a2,96(s0)
    800009a8:	02e7e063          	bltu	a5,a4,800009c8 <do_syscall+0x44>
    800009ac:	00002697          	auipc	a3,0x2
    800009b0:	f3468693          	addi	a3,a3,-204 # 800028e0 <__func__.0+0x168>
    800009b4:	00271793          	slli	a5,a4,0x2
    800009b8:	00d787b3          	add	a5,a5,a3
    800009bc:	0007a783          	lw	a5,0(a5)
    800009c0:	00d787b3          	add	a5,a5,a3
    800009c4:	00078067          	jr	a5
    800009c8:	fff00793          	li	a5,-1
    800009cc:	10f71863          	bne	a4,a5,80000adc <do_syscall+0x158>
    800009d0:	01013403          	ld	s0,16(sp)
    800009d4:	01813083          	ld	ra,24(sp)
    800009d8:	00002697          	auipc	a3,0x2
    800009dc:	f5868693          	addi	a3,a3,-168 # 80002930 <__func__.0>
    800009e0:	01700613          	li	a2,23
    800009e4:	00002597          	auipc	a1,0x2
    800009e8:	e5458593          	addi	a1,a1,-428 # 80002838 <__func__.0+0xc0>
    800009ec:	00002517          	auipc	a0,0x2
    800009f0:	e8450513          	addi	a0,a0,-380 # 80002870 <__func__.0+0xf8>
    800009f4:	02010113          	addi	sp,sp,32
    800009f8:	2d10006f          	j	800014c8 <printf>
    800009fc:	698000ef          	jal	ra,80001094 <yield>
    80000a00:	01813083          	ld	ra,24(sp)
    80000a04:	04043823          	sd	zero,80(s0)
    80000a08:	01013403          	ld	s0,16(sp)
    80000a0c:	02010113          	addi	sp,sp,32
    80000a10:	00008067          	ret
    80000a14:	0006061b          	sext.w	a2,a2
    80000a18:	0005859b          	sext.w	a1,a1
    80000a1c:	931ff0ef          	jal	ra,8000034c <fs_open>
    80000a20:	01813083          	ld	ra,24(sp)
    80000a24:	04a43823          	sd	a0,80(s0)
    80000a28:	01013403          	ld	s0,16(sp)
    80000a2c:	02010113          	addi	sp,sp,32
    80000a30:	00008067          	ret
    80000a34:	0005051b          	sext.w	a0,a0
    80000a38:	9d1ff0ef          	jal	ra,80000408 <fs_read>
    80000a3c:	01813083          	ld	ra,24(sp)
    80000a40:	04a43823          	sd	a0,80(s0)
    80000a44:	01013403          	ld	s0,16(sp)
    80000a48:	02010113          	addi	sp,sp,32
    80000a4c:	00008067          	ret
    80000a50:	0005051b          	sext.w	a0,a0
    80000a54:	a6dff0ef          	jal	ra,800004c0 <fs_write>
    80000a58:	01813083          	ld	ra,24(sp)
    80000a5c:	04a43823          	sd	a0,80(s0)
    80000a60:	01013403          	ld	s0,16(sp)
    80000a64:	02010113          	addi	sp,sp,32
    80000a68:	00008067          	ret
    80000a6c:	0005051b          	sext.w	a0,a0
    80000a70:	b9dff0ef          	jal	ra,8000060c <fs_close>
    80000a74:	01813083          	ld	ra,24(sp)
    80000a78:	04a43823          	sd	a0,80(s0)
    80000a7c:	01013403          	ld	s0,16(sp)
    80000a80:	02010113          	addi	sp,sp,32
    80000a84:	00008067          	ret
    80000a88:	0006061b          	sext.w	a2,a2
    80000a8c:	0005051b          	sext.w	a0,a0
    80000a90:	ad9ff0ef          	jal	ra,80000568 <fs_lseek>
    80000a94:	01813083          	ld	ra,24(sp)
    80000a98:	04a43823          	sd	a0,80(s0)
    80000a9c:	01013403          	ld	s0,16(sp)
    80000aa0:	02010113          	addi	sp,sp,32
    80000aa4:	00008067          	ret
    80000aa8:	01813083          	ld	ra,24(sp)
    80000aac:	04043823          	sd	zero,80(s0)
    80000ab0:	01013403          	ld	s0,16(sp)
    80000ab4:	02010113          	addi	sp,sp,32
    80000ab8:	00008067          	ret
    80000abc:	00810513          	addi	a0,sp,8
    80000ac0:	2ec000ef          	jal	ra,80000dac <__am_timer_uptime>
    80000ac4:	00813783          	ld	a5,8(sp)
    80000ac8:	01813083          	ld	ra,24(sp)
    80000acc:	04f43823          	sd	a5,80(s0)
    80000ad0:	01013403          	ld	s0,16(sp)
    80000ad4:	02010113          	addi	sp,sp,32
    80000ad8:	00008067          	ret
    80000adc:	00002697          	auipc	a3,0x2
    80000ae0:	e5468693          	addi	a3,a3,-428 # 80002930 <__func__.0>
    80000ae4:	03f00613          	li	a2,63
    80000ae8:	00002597          	auipc	a1,0x2
    80000aec:	d5058593          	addi	a1,a1,-688 # 80002838 <__func__.0+0xc0>
    80000af0:	00002517          	auipc	a0,0x2
    80000af4:	da850513          	addi	a0,a0,-600 # 80002898 <__func__.0+0x120>
    80000af8:	1d1000ef          	jal	ra,800014c8 <printf>
    80000afc:	00100513          	li	a0,1
    80000b00:	148000ef          	jal	ra,80000c48 <halt>
    80000b04:	0005051b          	sext.w	a0,a0
    80000b08:	140000ef          	jal	ra,80000c48 <halt>

0000000080000b0c <ramdisk_read>:
    80000b0c:	ff010113          	addi	sp,sp,-16
    80000b10:	00002717          	auipc	a4,0x2
    80000b14:	03170713          	addi	a4,a4,49 # 80002b41 <ramdisk_start>
    80000b18:	000a6797          	auipc	a5,0xa6
    80000b1c:	a2978793          	addi	a5,a5,-1495 # 800a6541 <_data>
    80000b20:	00113423          	sd	ra,8(sp)
    80000b24:	00813023          	sd	s0,0(sp)
    80000b28:	00c586b3          	add	a3,a1,a2
    80000b2c:	40e787b3          	sub	a5,a5,a4
    80000b30:	02d7e263          	bltu	a5,a3,80000b54 <ramdisk_read+0x48>
    80000b34:	00b705b3          	add	a1,a4,a1
    80000b38:	00060413          	mv	s0,a2
    80000b3c:	7ac000ef          	jal	ra,800012e8 <memcpy>
    80000b40:	00813083          	ld	ra,8(sp)
    80000b44:	00040513          	mv	a0,s0
    80000b48:	00013403          	ld	s0,0(sp)
    80000b4c:	01010113          	addi	sp,sp,16
    80000b50:	00008067          	ret
    80000b54:	00002717          	auipc	a4,0x2
    80000b58:	dec70713          	addi	a4,a4,-532 # 80002940 <__func__.0+0x10>
    80000b5c:	00002697          	auipc	a3,0x2
    80000b60:	eac68693          	addi	a3,a3,-340 # 80002a08 <__func__.2>
    80000b64:	00e00613          	li	a2,14
    80000b68:	00002597          	auipc	a1,0x2
    80000b6c:	df858593          	addi	a1,a1,-520 # 80002960 <__func__.0+0x30>
    80000b70:	00001517          	auipc	a0,0x1
    80000b74:	c8850513          	addi	a0,a0,-888 # 800017f8 <_etext+0x1d4>
    80000b78:	151000ef          	jal	ra,800014c8 <printf>
    80000b7c:	00100513          	li	a0,1
    80000b80:	0c8000ef          	jal	ra,80000c48 <halt>

0000000080000b84 <ramdisk_write>:
    80000b84:	ff010113          	addi	sp,sp,-16
    80000b88:	00002697          	auipc	a3,0x2
    80000b8c:	fb968693          	addi	a3,a3,-71 # 80002b41 <ramdisk_start>
    80000b90:	000a6717          	auipc	a4,0xa6
    80000b94:	9b170713          	addi	a4,a4,-1615 # 800a6541 <_data>
    80000b98:	00113423          	sd	ra,8(sp)
    80000b9c:	00813023          	sd	s0,0(sp)
    80000ba0:	00c58833          	add	a6,a1,a2
    80000ba4:	40d70733          	sub	a4,a4,a3
    80000ba8:	03076663          	bltu	a4,a6,80000bd4 <ramdisk_write+0x50>
    80000bac:	00058793          	mv	a5,a1
    80000bb0:	00050593          	mv	a1,a0
    80000bb4:	00f68533          	add	a0,a3,a5
    80000bb8:	00060413          	mv	s0,a2
    80000bbc:	72c000ef          	jal	ra,800012e8 <memcpy>
    80000bc0:	00813083          	ld	ra,8(sp)
    80000bc4:	00040513          	mv	a0,s0
    80000bc8:	00013403          	ld	s0,0(sp)
    80000bcc:	01010113          	addi	sp,sp,16
    80000bd0:	00008067          	ret
    80000bd4:	00002717          	auipc	a4,0x2
    80000bd8:	d6c70713          	addi	a4,a4,-660 # 80002940 <__func__.0+0x10>
    80000bdc:	00002697          	auipc	a3,0x2
    80000be0:	e1c68693          	addi	a3,a3,-484 # 800029f8 <__func__.1>
    80000be4:	01500613          	li	a2,21
    80000be8:	00002597          	auipc	a1,0x2
    80000bec:	d7858593          	addi	a1,a1,-648 # 80002960 <__func__.0+0x30>
    80000bf0:	00001517          	auipc	a0,0x1
    80000bf4:	c0850513          	addi	a0,a0,-1016 # 800017f8 <_etext+0x1d4>
    80000bf8:	0d1000ef          	jal	ra,800014c8 <printf>
    80000bfc:	00100513          	li	a0,1
    80000c00:	048000ef          	jal	ra,80000c48 <halt>

0000000080000c04 <init_ramdisk>:
    80000c04:	000a6797          	auipc	a5,0xa6
    80000c08:	93d78793          	addi	a5,a5,-1731 # 800a6541 <_data>
    80000c0c:	00002717          	auipc	a4,0x2
    80000c10:	f3570713          	addi	a4,a4,-203 # 80002b41 <ramdisk_start>
    80000c14:	40e78833          	sub	a6,a5,a4
    80000c18:	00002697          	auipc	a3,0x2
    80000c1c:	dd068693          	addi	a3,a3,-560 # 800029e8 <__func__.0>
    80000c20:	01b00613          	li	a2,27
    80000c24:	00002597          	auipc	a1,0x2
    80000c28:	d3c58593          	addi	a1,a1,-708 # 80002960 <__func__.0+0x30>
    80000c2c:	00002517          	auipc	a0,0x2
    80000c30:	d6c50513          	addi	a0,a0,-660 # 80002998 <__func__.0+0x68>
    80000c34:	0950006f          	j	800014c8 <printf>

0000000080000c38 <putch>:
    80000c38:	00500793          	li	a5,5
    80000c3c:	01d79793          	slli	a5,a5,0x1d
    80000c40:	3ea78c23          	sb	a0,1016(a5)
    80000c44:	00008067          	ret

0000000080000c48 <halt>:
    80000c48:	00050513          	mv	a0,a0
    80000c4c:	00100073          	ebreak
    80000c50:	0000006f          	j	80000c50 <halt+0x8>

0000000080000c54 <_trm_init>:
    80000c54:	ff010113          	addi	sp,sp,-16
    80000c58:	00002517          	auipc	a0,0x2
    80000c5c:	ee850513          	addi	a0,a0,-280 # 80002b40 <mainargs>
    80000c60:	00113423          	sd	ra,8(sp)
    80000c64:	bacff0ef          	jal	ra,80000010 <main>
    80000c68:	00050513          	mv	a0,a0
    80000c6c:	00100073          	ebreak
    80000c70:	0000006f          	j	80000c70 <_trm_init+0x1c>

0000000080000c74 <__am_timer_config>:
    80000c74:	00100793          	li	a5,1
    80000c78:	00f50023          	sb	a5,0(a0)
    80000c7c:	00f500a3          	sb	a5,1(a0)
    80000c80:	00008067          	ret

0000000080000c84 <__am_input_config>:
    80000c84:	00100793          	li	a5,1
    80000c88:	00f50023          	sb	a5,0(a0)
    80000c8c:	00008067          	ret

0000000080000c90 <__am_uart_config>:
    80000c90:	00050023          	sb	zero,0(a0)
    80000c94:	00008067          	ret

0000000080000c98 <__am_net_config>:
    80000c98:	00050023          	sb	zero,0(a0)
    80000c9c:	00008067          	ret

0000000080000ca0 <fail>:
    80000ca0:	ff010113          	addi	sp,sp,-16
    80000ca4:	00813023          	sd	s0,0(sp)
    80000ca8:	00113423          	sd	ra,8(sp)
    80000cac:	00002417          	auipc	s0,0x2
    80000cb0:	d6c40413          	addi	s0,s0,-660 # 80002a18 <__func__.2+0x10>
    80000cb4:	04100513          	li	a0,65
    80000cb8:	00140413          	addi	s0,s0,1
    80000cbc:	f7dff0ef          	jal	ra,80000c38 <putch>
    80000cc0:	00044503          	lbu	a0,0(s0)
    80000cc4:	fe051ae3          	bnez	a0,80000cb8 <fail+0x18>
    80000cc8:	00002417          	auipc	s0,0x2
    80000ccc:	d6040413          	addi	s0,s0,-672 # 80002a28 <__func__.2+0x20>
    80000cd0:	06100513          	li	a0,97
    80000cd4:	00140413          	addi	s0,s0,1
    80000cd8:	f61ff0ef          	jal	ra,80000c38 <putch>
    80000cdc:	00044503          	lbu	a0,0(s0)
    80000ce0:	fe051ae3          	bnez	a0,80000cd4 <fail+0x34>
    80000ce4:	00002417          	auipc	s0,0x2
    80000ce8:	d6440413          	addi	s0,s0,-668 # 80002a48 <__func__.2+0x40>
    80000cec:	02000513          	li	a0,32
    80000cf0:	00140413          	addi	s0,s0,1
    80000cf4:	f45ff0ef          	jal	ra,80000c38 <putch>
    80000cf8:	00044503          	lbu	a0,0(s0)
    80000cfc:	fe051ae3          	bnez	a0,80000cf0 <fail+0x50>
    80000d00:	00100513          	li	a0,1
    80000d04:	f45ff0ef          	jal	ra,80000c48 <halt>

0000000080000d08 <ioe_init>:
    80000d08:	ff010113          	addi	sp,sp,-16
    80000d0c:	00113423          	sd	ra,8(sp)
    80000d10:	000a6797          	auipc	a5,0xa6
    80000d14:	5e878793          	addi	a5,a5,1512 # 800a72f8 <lut>
    80000d18:	000a7697          	auipc	a3,0xa7
    80000d1c:	9e068693          	addi	a3,a3,-1568 # 800a76f8 <lut+0x400>
    80000d20:	00000617          	auipc	a2,0x0
    80000d24:	f8060613          	addi	a2,a2,-128 # 80000ca0 <fail>
    80000d28:	00c0006f          	j	80000d34 <ioe_init+0x2c>
    80000d2c:	00878793          	addi	a5,a5,8
    80000d30:	00d78c63          	beq	a5,a3,80000d48 <ioe_init+0x40>
    80000d34:	0007b703          	ld	a4,0(a5)
    80000d38:	fe071ae3          	bnez	a4,80000d2c <ioe_init+0x24>
    80000d3c:	00c7b023          	sd	a2,0(a5)
    80000d40:	00878793          	addi	a5,a5,8
    80000d44:	fed798e3          	bne	a5,a3,80000d34 <ioe_init+0x2c>
    80000d48:	0e8000ef          	jal	ra,80000e30 <__am_gpu_init>
    80000d4c:	034000ef          	jal	ra,80000d80 <__am_timer_init>
    80000d50:	23c000ef          	jal	ra,80000f8c <__am_audio_init>
    80000d54:	00813083          	ld	ra,8(sp)
    80000d58:	00100513          	li	a0,1
    80000d5c:	01010113          	addi	sp,sp,16
    80000d60:	00008067          	ret

0000000080000d64 <ioe_read>:
    80000d64:	00351513          	slli	a0,a0,0x3
    80000d68:	000a6797          	auipc	a5,0xa6
    80000d6c:	59078793          	addi	a5,a5,1424 # 800a72f8 <lut>
    80000d70:	00a787b3          	add	a5,a5,a0
    80000d74:	0007b783          	ld	a5,0(a5)
    80000d78:	00058513          	mv	a0,a1
    80000d7c:	00078067          	jr	a5

0000000080000d80 <__am_timer_init>:
    80000d80:	00500793          	li	a5,5
    80000d84:	01d79793          	slli	a5,a5,0x1d
    80000d88:	0487a703          	lw	a4,72(a5)
    80000d8c:	04c7a783          	lw	a5,76(a5)
    80000d90:	02071713          	slli	a4,a4,0x20
    80000d94:	02075713          	srli	a4,a4,0x20
    80000d98:	02079793          	slli	a5,a5,0x20
    80000d9c:	00e7e7b3          	or	a5,a5,a4
    80000da0:	0012b717          	auipc	a4,0x12b
    80000da4:	aaf73823          	sd	a5,-1360(a4) # 8012b850 <boot_time>
    80000da8:	00008067          	ret

0000000080000dac <__am_timer_uptime>:
    80000dac:	00500793          	li	a5,5
    80000db0:	01d79793          	slli	a5,a5,0x1d
    80000db4:	0487a703          	lw	a4,72(a5)
    80000db8:	04c7a783          	lw	a5,76(a5)
    80000dbc:	02071713          	slli	a4,a4,0x20
    80000dc0:	02075713          	srli	a4,a4,0x20
    80000dc4:	02079793          	slli	a5,a5,0x20
    80000dc8:	00e7e7b3          	or	a5,a5,a4
    80000dcc:	0012b717          	auipc	a4,0x12b
    80000dd0:	a8473703          	ld	a4,-1404(a4) # 8012b850 <boot_time>
    80000dd4:	40e787b3          	sub	a5,a5,a4
    80000dd8:	00f53023          	sd	a5,0(a0)
    80000ddc:	00008067          	ret

0000000080000de0 <__am_timer_rtc>:
    80000de0:	76c00793          	li	a5,1900
    80000de4:	00052a23          	sw	zero,20(a0)
    80000de8:	00052823          	sw	zero,16(a0)
    80000dec:	00052623          	sw	zero,12(a0)
    80000df0:	00052423          	sw	zero,8(a0)
    80000df4:	00052223          	sw	zero,4(a0)
    80000df8:	00f52023          	sw	a5,0(a0)
    80000dfc:	00008067          	ret

0000000080000e00 <__am_input_keybrd>:
    80000e00:	00500793          	li	a5,5
    80000e04:	01d79793          	slli	a5,a5,0x1d
    80000e08:	0607a783          	lw	a5,96(a5)
    80000e0c:	ffff86b7          	lui	a3,0xffff8
    80000e10:	fff68693          	addi	a3,a3,-1 # ffffffffffff7fff <_end+0xffffffff7fec3fff>
    80000e14:	0007879b          	sext.w	a5,a5
    80000e18:	40f7d71b          	sraiw	a4,a5,0xf
    80000e1c:	00177713          	andi	a4,a4,1
    80000e20:	00d7f7b3          	and	a5,a5,a3
    80000e24:	00e50023          	sb	a4,0(a0)
    80000e28:	00f52223          	sw	a5,4(a0)
    80000e2c:	00008067          	ret

0000000080000e30 <__am_gpu_init>:
    80000e30:	00500793          	li	a5,5
    80000e34:	01d79793          	slli	a5,a5,0x1d
    80000e38:	1007a783          	lw	a5,256(a5)
    80000e3c:	0012b597          	auipc	a1,0x12b
    80000e40:	a2058593          	addi	a1,a1,-1504 # 8012b85c <width>
    80000e44:	0012b517          	auipc	a0,0x12b
    80000e48:	a1450513          	addi	a0,a0,-1516 # 8012b858 <height>
    80000e4c:	0107d71b          	srliw	a4,a5,0x10
    80000e50:	03079793          	slli	a5,a5,0x30
    80000e54:	0307d793          	srli	a5,a5,0x30
    80000e58:	02f706bb          	mulw	a3,a4,a5
    80000e5c:	00e5a023          	sw	a4,0(a1)
    80000e60:	00f52023          	sw	a5,0(a0)
    80000e64:	02068663          	beqz	a3,80000e90 <__am_gpu_init+0x60>
    80000e68:	0a100693          	li	a3,161
    80000e6c:	01869693          	slli	a3,a3,0x18
    80000e70:	00000793          	li	a5,0
    80000e74:	00f6a023          	sw	a5,0(a3)
    80000e78:	0005a603          	lw	a2,0(a1)
    80000e7c:	00052703          	lw	a4,0(a0)
    80000e80:	0017879b          	addiw	a5,a5,1
    80000e84:	00468693          	addi	a3,a3,4
    80000e88:	02c7073b          	mulw	a4,a4,a2
    80000e8c:	fee7c4e3          	blt	a5,a4,80000e74 <__am_gpu_init+0x44>
    80000e90:	00500793          	li	a5,5
    80000e94:	01d79793          	slli	a5,a5,0x1d
    80000e98:	00100713          	li	a4,1
    80000e9c:	10e7a223          	sw	a4,260(a5)
    80000ea0:	00008067          	ret

0000000080000ea4 <__am_gpu_config>:
    80000ea4:	0012b717          	auipc	a4,0x12b
    80000ea8:	9b872703          	lw	a4,-1608(a4) # 8012b85c <width>
    80000eac:	0012b797          	auipc	a5,0x12b
    80000eb0:	9ac7a783          	lw	a5,-1620(a5) # 8012b858 <height>
    80000eb4:	00100693          	li	a3,1
    80000eb8:	00d51023          	sh	a3,0(a0)
    80000ebc:	00e52223          	sw	a4,4(a0)
    80000ec0:	00f52423          	sw	a5,8(a0)
    80000ec4:	00052623          	sw	zero,12(a0)
    80000ec8:	00008067          	ret

0000000080000ecc <__am_gpu_fbdraw>:
    80000ecc:	01452783          	lw	a5,20(a0)
    80000ed0:	08f05a63          	blez	a5,80000f64 <__am_gpu_fbdraw+0x98>
    80000ed4:	01052583          	lw	a1,16(a0)
    80000ed8:	0a100f13          	li	t5,161
    80000edc:	00000813          	li	a6,0
    80000ee0:	00000893          	li	a7,0
    80000ee4:	0012be17          	auipc	t3,0x12b
    80000ee8:	974e0e13          	addi	t3,t3,-1676 # 8012b858 <height>
    80000eec:	0012be97          	auipc	t4,0x12b
    80000ef0:	970e8e93          	addi	t4,t4,-1680 # 8012b85c <width>
    80000ef4:	018f1f13          	slli	t5,t5,0x18
    80000ef8:	00000693          	li	a3,0
    80000efc:	06b05063          	blez	a1,80000f5c <__am_gpu_fbdraw+0x90>
    80000f00:	00452703          	lw	a4,4(a0)
    80000f04:	000e2603          	lw	a2,0(t3)
    80000f08:	010707bb          	addw	a5,a4,a6
    80000f0c:	00078713          	mv	a4,a5
    80000f10:	04f64063          	blt	a2,a5,80000f50 <__am_gpu_fbdraw+0x84>
    80000f14:	00052603          	lw	a2,0(a0)
    80000f18:	000ea783          	lw	a5,0(t4)
    80000f1c:	00d6033b          	addw	t1,a2,a3
    80000f20:	0267c863          	blt	a5,t1,80000f50 <__am_gpu_fbdraw+0x84>
    80000f24:	02e787bb          	mulw	a5,a5,a4
    80000f28:	00853703          	ld	a4,8(a0)
    80000f2c:	0018889b          	addiw	a7,a7,1
    80000f30:	00289593          	slli	a1,a7,0x2
    80000f34:	00b70733          	add	a4,a4,a1
    80000f38:	00072703          	lw	a4,0(a4)
    80000f3c:	006787bb          	addw	a5,a5,t1
    80000f40:	00279793          	slli	a5,a5,0x2
    80000f44:	00ff07b3          	add	a5,t5,a5
    80000f48:	00e7a023          	sw	a4,0(a5)
    80000f4c:	01052583          	lw	a1,16(a0)
    80000f50:	0016869b          	addiw	a3,a3,1
    80000f54:	fab6c6e3          	blt	a3,a1,80000f00 <__am_gpu_fbdraw+0x34>
    80000f58:	01452783          	lw	a5,20(a0)
    80000f5c:	0018081b          	addiw	a6,a6,1
    80000f60:	f8f84ce3          	blt	a6,a5,80000ef8 <__am_gpu_fbdraw+0x2c>
    80000f64:	01854783          	lbu	a5,24(a0)
    80000f68:	00078a63          	beqz	a5,80000f7c <__am_gpu_fbdraw+0xb0>
    80000f6c:	00500793          	li	a5,5
    80000f70:	01d79793          	slli	a5,a5,0x1d
    80000f74:	00100713          	li	a4,1
    80000f78:	10e7a223          	sw	a4,260(a5)
    80000f7c:	00008067          	ret

0000000080000f80 <__am_gpu_status>:
    80000f80:	00100793          	li	a5,1
    80000f84:	00f50023          	sb	a5,0(a0)
    80000f88:	00008067          	ret

0000000080000f8c <__am_audio_init>:
    80000f8c:	00008067          	ret

0000000080000f90 <__am_audio_config>:
    80000f90:	00050023          	sb	zero,0(a0)
    80000f94:	00008067          	ret

0000000080000f98 <__am_audio_ctrl>:
    80000f98:	00008067          	ret

0000000080000f9c <__am_audio_status>:
    80000f9c:	00052023          	sw	zero,0(a0)
    80000fa0:	00008067          	ret

0000000080000fa4 <__am_audio_play>:
    80000fa4:	00008067          	ret

0000000080000fa8 <__am_disk_config>:
    80000fa8:	00050023          	sb	zero,0(a0)
    80000fac:	00008067          	ret

0000000080000fb0 <__am_disk_status>:
    80000fb0:	00008067          	ret

0000000080000fb4 <__am_disk_blkio>:
    80000fb4:	00008067          	ret

0000000080000fb8 <__am_irq_handle>:
    80000fb8:	0012b797          	auipc	a5,0x12b
    80000fbc:	8a87b783          	ld	a5,-1880(a5) # 8012b860 <user_handler>
    80000fc0:	00050593          	mv	a1,a0
    80000fc4:	08078663          	beqz	a5,80001050 <__am_irq_handle+0x98>
    80000fc8:	10053683          	ld	a3,256(a0)
    80000fcc:	fb010113          	addi	sp,sp,-80
    80000fd0:	04113423          	sd	ra,72(sp)
    80000fd4:	02013023          	sd	zero,32(sp)
    80000fd8:	02013423          	sd	zero,40(sp)
    80000fdc:	02013823          	sd	zero,48(sp)
    80000fe0:	02013c23          	sd	zero,56(sp)
    80000fe4:	00b00713          	li	a4,11
    80000fe8:	04e68263          	beq	a3,a4,8000102c <__am_irq_handle+0x74>
    80000fec:	00400713          	li	a4,4
    80000ff0:	02e12023          	sw	a4,32(sp)
    80000ff4:	02013703          	ld	a4,32(sp)
    80000ff8:	00010513          	mv	a0,sp
    80000ffc:	00e13023          	sd	a4,0(sp)
    80001000:	02813703          	ld	a4,40(sp)
    80001004:	00e13423          	sd	a4,8(sp)
    80001008:	03013703          	ld	a4,48(sp)
    8000100c:	00e13823          	sd	a4,16(sp)
    80001010:	03813703          	ld	a4,56(sp)
    80001014:	00e13c23          	sd	a4,24(sp)
    80001018:	000780e7          	jalr	a5
    8000101c:	02050c63          	beqz	a0,80001054 <__am_irq_handle+0x9c>
    80001020:	04813083          	ld	ra,72(sp)
    80001024:	05010113          	addi	sp,sp,80
    80001028:	00008067          	ret
    8000102c:	08853703          	ld	a4,136(a0)
    80001030:	11053683          	ld	a3,272(a0)
    80001034:	00170713          	addi	a4,a4,1
    80001038:	00e03733          	snez	a4,a4
    8000103c:	00170713          	addi	a4,a4,1
    80001040:	00468693          	addi	a3,a3,4
    80001044:	02e12023          	sw	a4,32(sp)
    80001048:	10d53823          	sd	a3,272(a0)
    8000104c:	fa9ff06f          	j	80000ff4 <__am_irq_handle+0x3c>
    80001050:	00008067          	ret
    80001054:	02000613          	li	a2,32
    80001058:	00002597          	auipc	a1,0x2
    8000105c:	a4858593          	addi	a1,a1,-1464 # 80002aa0 <__func__.2+0x98>
    80001060:	00002517          	auipc	a0,0x2
    80001064:	a8850513          	addi	a0,a0,-1400 # 80002ae8 <__func__.2+0xe0>
    80001068:	460000ef          	jal	ra,800014c8 <printf>
    8000106c:	00100513          	li	a0,1
    80001070:	bd9ff0ef          	jal	ra,80000c48 <halt>

0000000080001074 <cte_init>:
    80001074:	00050793          	mv	a5,a0
    80001078:	00000717          	auipc	a4,0x0
    8000107c:	02870713          	addi	a4,a4,40 # 800010a0 <__am_asm_trap>
    80001080:	30571073          	csrw	mtvec,a4
    80001084:	00100513          	li	a0,1
    80001088:	0012a717          	auipc	a4,0x12a
    8000108c:	7cf73c23          	sd	a5,2008(a4) # 8012b860 <user_handler>
    80001090:	00008067          	ret

0000000080001094 <yield>:
    80001094:	fff00893          	li	a7,-1
    80001098:	00000073          	ecall
    8000109c:	00008067          	ret

00000000800010a0 <__am_asm_trap>:
    800010a0:	ee010113          	addi	sp,sp,-288
    800010a4:	00113423          	sd	ra,8(sp)
    800010a8:	00313c23          	sd	gp,24(sp)
    800010ac:	02413023          	sd	tp,32(sp)
    800010b0:	02513423          	sd	t0,40(sp)
    800010b4:	02613823          	sd	t1,48(sp)
    800010b8:	02713c23          	sd	t2,56(sp)
    800010bc:	04813023          	sd	s0,64(sp)
    800010c0:	04913423          	sd	s1,72(sp)
    800010c4:	04a13823          	sd	a0,80(sp)
    800010c8:	04b13c23          	sd	a1,88(sp)
    800010cc:	06c13023          	sd	a2,96(sp)
    800010d0:	06d13423          	sd	a3,104(sp)
    800010d4:	06e13823          	sd	a4,112(sp)
    800010d8:	06f13c23          	sd	a5,120(sp)
    800010dc:	09013023          	sd	a6,128(sp)
    800010e0:	09113423          	sd	a7,136(sp)
    800010e4:	09213823          	sd	s2,144(sp)
    800010e8:	09313c23          	sd	s3,152(sp)
    800010ec:	0b413023          	sd	s4,160(sp)
    800010f0:	0b513423          	sd	s5,168(sp)
    800010f4:	0b613823          	sd	s6,176(sp)
    800010f8:	0b713c23          	sd	s7,184(sp)
    800010fc:	0d813023          	sd	s8,192(sp)
    80001100:	0d913423          	sd	s9,200(sp)
    80001104:	0da13823          	sd	s10,208(sp)
    80001108:	0db13c23          	sd	s11,216(sp)
    8000110c:	0fc13023          	sd	t3,224(sp)
    80001110:	0fd13423          	sd	t4,232(sp)
    80001114:	0fe13823          	sd	t5,240(sp)
    80001118:	0ff13c23          	sd	t6,248(sp)
    8000111c:	342022f3          	csrr	t0,mcause
    80001120:	30002373          	csrr	t1,mstatus
    80001124:	341023f3          	csrr	t2,mepc
    80001128:	10513023          	sd	t0,256(sp)
    8000112c:	10613423          	sd	t1,264(sp)
    80001130:	10713823          	sd	t2,272(sp)
    80001134:	00020537          	lui	a0,0x20
    80001138:	00a36333          	or	t1,t1,a0
    8000113c:	30031073          	csrw	mstatus,t1
    80001140:	00010513          	mv	a0,sp
    80001144:	e75ff0ef          	jal	ra,80000fb8 <__am_irq_handle>
    80001148:	10813303          	ld	t1,264(sp)
    8000114c:	11013383          	ld	t2,272(sp)
    80001150:	30031073          	csrw	mstatus,t1
    80001154:	34139073          	csrw	mepc,t2
    80001158:	00813083          	ld	ra,8(sp)
    8000115c:	01813183          	ld	gp,24(sp)
    80001160:	02013203          	ld	tp,32(sp)
    80001164:	02813283          	ld	t0,40(sp)
    80001168:	03013303          	ld	t1,48(sp)
    8000116c:	03813383          	ld	t2,56(sp)
    80001170:	04013403          	ld	s0,64(sp)
    80001174:	04813483          	ld	s1,72(sp)
    80001178:	05013503          	ld	a0,80(sp)
    8000117c:	05813583          	ld	a1,88(sp)
    80001180:	06013603          	ld	a2,96(sp)
    80001184:	06813683          	ld	a3,104(sp)
    80001188:	07013703          	ld	a4,112(sp)
    8000118c:	07813783          	ld	a5,120(sp)
    80001190:	08013803          	ld	a6,128(sp)
    80001194:	08813883          	ld	a7,136(sp)
    80001198:	09013903          	ld	s2,144(sp)
    8000119c:	09813983          	ld	s3,152(sp)
    800011a0:	0a013a03          	ld	s4,160(sp)
    800011a4:	0a813a83          	ld	s5,168(sp)
    800011a8:	0b013b03          	ld	s6,176(sp)
    800011ac:	0b813b83          	ld	s7,184(sp)
    800011b0:	0c013c03          	ld	s8,192(sp)
    800011b4:	0c813c83          	ld	s9,200(sp)
    800011b8:	0d013d03          	ld	s10,208(sp)
    800011bc:	0d813d83          	ld	s11,216(sp)
    800011c0:	0e013e03          	ld	t3,224(sp)
    800011c4:	0e813e83          	ld	t4,232(sp)
    800011c8:	0f013f03          	ld	t5,240(sp)
    800011cc:	0f813f83          	ld	t6,248(sp)
    800011d0:	12010113          	addi	sp,sp,288
    800011d4:	30200073          	mret
    800011d8:	0000                	.2byte	0x0
	...

00000000800011dc <strlen>:
    800011dc:	00054783          	lbu	a5,0(a0) # 20000 <_entry_offset+0x20000>
    800011e0:	00078e63          	beqz	a5,800011fc <strlen+0x20>
    800011e4:	00050793          	mv	a5,a0
    800011e8:	0017c703          	lbu	a4,1(a5)
    800011ec:	00178793          	addi	a5,a5,1
    800011f0:	fe071ce3          	bnez	a4,800011e8 <strlen+0xc>
    800011f4:	40a78533          	sub	a0,a5,a0
    800011f8:	00008067          	ret
    800011fc:	00000513          	li	a0,0
    80001200:	00008067          	ret

0000000080001204 <strcpy>:
    80001204:	0005c783          	lbu	a5,0(a1)
    80001208:	00050713          	mv	a4,a0
    8000120c:	00078c63          	beqz	a5,80001224 <strcpy+0x20>
    80001210:	00f70023          	sb	a5,0(a4)
    80001214:	0015c783          	lbu	a5,1(a1)
    80001218:	00158593          	addi	a1,a1,1
    8000121c:	00170713          	addi	a4,a4,1
    80001220:	fe0798e3          	bnez	a5,80001210 <strcpy+0xc>
    80001224:	00070023          	sb	zero,0(a4)
    80001228:	00008067          	ret

000000008000122c <strcmp>:
    8000122c:	00050693          	mv	a3,a0
    80001230:	0140006f          	j	80001244 <strcmp+0x18>
    80001234:	40f7053b          	subw	a0,a4,a5
    80001238:	02060863          	beqz	a2,80001268 <strcmp+0x3c>
    8000123c:	00158593          	addi	a1,a1,1
    80001240:	02051263          	bnez	a0,80001264 <strcmp+0x38>
    80001244:	0006c703          	lbu	a4,0(a3)
    80001248:	0005c603          	lbu	a2,0(a1)
    8000124c:	00168693          	addi	a3,a3,1
    80001250:	0007081b          	sext.w	a6,a4
    80001254:	0006079b          	sext.w	a5,a2
    80001258:	fc071ee3          	bnez	a4,80001234 <strcmp+0x8>
    8000125c:	00000813          	li	a6,0
    80001260:	40f8053b          	subw	a0,a6,a5
    80001264:	00008067          	ret
    80001268:	00000793          	li	a5,0
    8000126c:	40f8053b          	subw	a0,a6,a5
    80001270:	ff5ff06f          	j	80001264 <strcmp+0x38>

0000000080001274 <memset>:
    80001274:	0ff5f593          	zext.b	a1,a1
    80001278:	00c50733          	add	a4,a0,a2
    8000127c:	00050793          	mv	a5,a0
    80001280:	00060863          	beqz	a2,80001290 <memset+0x1c>
    80001284:	00178793          	addi	a5,a5,1
    80001288:	feb78fa3          	sb	a1,-1(a5)
    8000128c:	fee79ce3          	bne	a5,a4,80001284 <memset+0x10>
    80001290:	00008067          	ret

0000000080001294 <memmove>:
    80001294:	02a5e463          	bltu	a1,a0,800012bc <memmove+0x28>
    80001298:	04060663          	beqz	a2,800012e4 <memmove+0x50>
    8000129c:	00c50633          	add	a2,a0,a2
    800012a0:	00050793          	mv	a5,a0
    800012a4:	0005c703          	lbu	a4,0(a1)
    800012a8:	00178793          	addi	a5,a5,1
    800012ac:	00158593          	addi	a1,a1,1
    800012b0:	fee78fa3          	sb	a4,-1(a5)
    800012b4:	fec798e3          	bne	a5,a2,800012a4 <memmove+0x10>
    800012b8:	00008067          	ret
    800012bc:	fff60793          	addi	a5,a2,-1
    800012c0:	00f50733          	add	a4,a0,a5
    800012c4:	00f587b3          	add	a5,a1,a5
    800012c8:	00060e63          	beqz	a2,800012e4 <memmove+0x50>
    800012cc:	fff58593          	addi	a1,a1,-1
    800012d0:	0007c683          	lbu	a3,0(a5)
    800012d4:	fff78793          	addi	a5,a5,-1
    800012d8:	fff70713          	addi	a4,a4,-1
    800012dc:	00d700a3          	sb	a3,1(a4)
    800012e0:	feb798e3          	bne	a5,a1,800012d0 <memmove+0x3c>
    800012e4:	00008067          	ret

00000000800012e8 <memcpy>:
    800012e8:	ff010113          	addi	sp,sp,-16
    800012ec:	00813023          	sd	s0,0(sp)
    800012f0:	00113423          	sd	ra,8(sp)
    800012f4:	00050413          	mv	s0,a0
    800012f8:	f9dff0ef          	jal	ra,80001294 <memmove>
    800012fc:	00813083          	ld	ra,8(sp)
    80001300:	00040513          	mv	a0,s0
    80001304:	00013403          	ld	s0,0(sp)
    80001308:	01010113          	addi	sp,sp,16
    8000130c:	00008067          	ret

0000000080001310 <vsprintf>:
    80001310:	f9010113          	addi	sp,sp,-112
    80001314:	03513c23          	sd	s5,56(sp)
    80001318:	06113423          	sd	ra,104(sp)
    8000131c:	06813023          	sd	s0,96(sp)
    80001320:	04913c23          	sd	s1,88(sp)
    80001324:	05213823          	sd	s2,80(sp)
    80001328:	05313423          	sd	s3,72(sp)
    8000132c:	05413023          	sd	s4,64(sp)
    80001330:	03613823          	sd	s6,48(sp)
    80001334:	03713423          	sd	s7,40(sp)
    80001338:	03813023          	sd	s8,32(sp)
    8000133c:	01913c23          	sd	s9,24(sp)
    80001340:	01a13823          	sd	s10,16(sp)
    80001344:	01b13423          	sd	s11,8(sp)
    80001348:	0005c783          	lbu	a5,0(a1)
    8000134c:	00050a93          	mv	s5,a0
    80001350:	12078a63          	beqz	a5,80001484 <vsprintf+0x174>
    80001354:	00058413          	mv	s0,a1
    80001358:	00060713          	mv	a4,a2
    8000135c:	00050493          	mv	s1,a0
    80001360:	02500993          	li	s3,37
    80001364:	07000a13          	li	s4,112
    80001368:	0012ab17          	auipc	s6,0x12a
    8000136c:	498b0b13          	addi	s6,s6,1176 # 8012b800 <str_temp.0>
    80001370:	07300c93          	li	s9,115
    80001374:	06300c13          	li	s8,99
    80001378:	06400b93          	li	s7,100
    8000137c:	07378063          	beq	a5,s3,800013dc <vsprintf+0xcc>
    80001380:	00f48023          	sb	a5,0(s1)
    80001384:	00140413          	addi	s0,s0,1
    80001388:	00148493          	addi	s1,s1,1
    8000138c:	00044783          	lbu	a5,0(s0)
    80001390:	fe0796e3          	bnez	a5,8000137c <vsprintf+0x6c>
    80001394:	00048023          	sb	zero,0(s1)
    80001398:	06813083          	ld	ra,104(sp)
    8000139c:	06013403          	ld	s0,96(sp)
    800013a0:	00148513          	addi	a0,s1,1
    800013a4:	05013903          	ld	s2,80(sp)
    800013a8:	05813483          	ld	s1,88(sp)
    800013ac:	04813983          	ld	s3,72(sp)
    800013b0:	04013a03          	ld	s4,64(sp)
    800013b4:	03013b03          	ld	s6,48(sp)
    800013b8:	02813b83          	ld	s7,40(sp)
    800013bc:	02013c03          	ld	s8,32(sp)
    800013c0:	01813c83          	ld	s9,24(sp)
    800013c4:	01013d03          	ld	s10,16(sp)
    800013c8:	00813d83          	ld	s11,8(sp)
    800013cc:	4155053b          	subw	a0,a0,s5
    800013d0:	03813a83          	ld	s5,56(sp)
    800013d4:	07010113          	addi	sp,sp,112
    800013d8:	00008067          	ret
    800013dc:	00144783          	lbu	a5,1(s0)
    800013e0:	09478c63          	beq	a5,s4,80001478 <vsprintf+0x168>
    800013e4:	04fa6463          	bltu	s4,a5,8000142c <vsprintf+0x11c>
    800013e8:	07878c63          	beq	a5,s8,80001460 <vsprintf+0x150>
    800013ec:	03779c63          	bne	a5,s7,80001424 <vsprintf+0x114>
    800013f0:	00072503          	lw	a0,0(a4)
    800013f4:	00a00613          	li	a2,10
    800013f8:	000b0593          	mv	a1,s6
    800013fc:	00870913          	addi	s2,a4,8
    80001400:	14c000ef          	jal	ra,8000154c <itoa>
    80001404:	00050593          	mv	a1,a0
    80001408:	00050d13          	mv	s10,a0
    8000140c:	00048513          	mv	a0,s1
    80001410:	df5ff0ef          	jal	ra,80001204 <strcpy>
    80001414:	000d0513          	mv	a0,s10
    80001418:	dc5ff0ef          	jal	ra,800011dc <strlen>
    8000141c:	00a484b3          	add	s1,s1,a0
    80001420:	00090713          	mv	a4,s2
    80001424:	00240413          	addi	s0,s0,2
    80001428:	f65ff06f          	j	8000138c <vsprintf+0x7c>
    8000142c:	ff979ce3          	bne	a5,s9,80001424 <vsprintf+0x114>
    80001430:	00073d83          	ld	s11,0(a4)
    80001434:	00870913          	addi	s2,a4,8
    80001438:	00240413          	addi	s0,s0,2
    8000143c:	000d8513          	mv	a0,s11
    80001440:	d9dff0ef          	jal	ra,800011dc <strlen>
    80001444:	00050d13          	mv	s10,a0
    80001448:	000d8593          	mv	a1,s11
    8000144c:	00048513          	mv	a0,s1
    80001450:	db5ff0ef          	jal	ra,80001204 <strcpy>
    80001454:	01a484b3          	add	s1,s1,s10
    80001458:	00090713          	mv	a4,s2
    8000145c:	f31ff06f          	j	8000138c <vsprintf+0x7c>
    80001460:	00072783          	lw	a5,0(a4)
    80001464:	00148493          	addi	s1,s1,1
    80001468:	00870713          	addi	a4,a4,8
    8000146c:	00240413          	addi	s0,s0,2
    80001470:	fef48fa3          	sb	a5,-1(s1)
    80001474:	f19ff06f          	j	8000138c <vsprintf+0x7c>
    80001478:	00072503          	lw	a0,0(a4)
    8000147c:	01000613          	li	a2,16
    80001480:	f79ff06f          	j	800013f8 <vsprintf+0xe8>
    80001484:	00050493          	mv	s1,a0
    80001488:	f0dff06f          	j	80001394 <vsprintf+0x84>

000000008000148c <sprintf>:
    8000148c:	fb010113          	addi	sp,sp,-80
    80001490:	02010313          	addi	t1,sp,32
    80001494:	02c13023          	sd	a2,32(sp)
    80001498:	00030613          	mv	a2,t1
    8000149c:	00113c23          	sd	ra,24(sp)
    800014a0:	02d13423          	sd	a3,40(sp)
    800014a4:	02e13823          	sd	a4,48(sp)
    800014a8:	02f13c23          	sd	a5,56(sp)
    800014ac:	05013023          	sd	a6,64(sp)
    800014b0:	05113423          	sd	a7,72(sp)
    800014b4:	00613423          	sd	t1,8(sp)
    800014b8:	e59ff0ef          	jal	ra,80001310 <vsprintf>
    800014bc:	01813083          	ld	ra,24(sp)
    800014c0:	05010113          	addi	sp,sp,80
    800014c4:	00008067          	ret

00000000800014c8 <printf>:
    800014c8:	f9010113          	addi	sp,sp,-112
    800014cc:	03810313          	addi	t1,sp,56
    800014d0:	02b13c23          	sd	a1,56(sp)
    800014d4:	04c13023          	sd	a2,64(sp)
    800014d8:	00050593          	mv	a1,a0
    800014dc:	00030613          	mv	a2,t1
    800014e0:	0012a517          	auipc	a0,0x12a
    800014e4:	b2050513          	addi	a0,a0,-1248 # 8012b000 <printf_buf>
    800014e8:	02813023          	sd	s0,32(sp)
    800014ec:	00913c23          	sd	s1,24(sp)
    800014f0:	02113423          	sd	ra,40(sp)
    800014f4:	04d13423          	sd	a3,72(sp)
    800014f8:	04e13823          	sd	a4,80(sp)
    800014fc:	04f13c23          	sd	a5,88(sp)
    80001500:	07013023          	sd	a6,96(sp)
    80001504:	07113423          	sd	a7,104(sp)
    80001508:	00613423          	sd	t1,8(sp)
    8000150c:	0012a417          	auipc	s0,0x12a
    80001510:	af440413          	addi	s0,s0,-1292 # 8012b000 <printf_buf>
    80001514:	dfdff0ef          	jal	ra,80001310 <vsprintf>
    80001518:	00050493          	mv	s1,a0
    8000151c:	00044503          	lbu	a0,0(s0)
    80001520:	00050a63          	beqz	a0,80001534 <printf+0x6c>
    80001524:	00140413          	addi	s0,s0,1
    80001528:	f10ff0ef          	jal	ra,80000c38 <putch>
    8000152c:	00044503          	lbu	a0,0(s0)
    80001530:	fe051ae3          	bnez	a0,80001524 <printf+0x5c>
    80001534:	02813083          	ld	ra,40(sp)
    80001538:	02013403          	ld	s0,32(sp)
    8000153c:	00048513          	mv	a0,s1
    80001540:	01813483          	ld	s1,24(sp)
    80001544:	07010113          	addi	sp,sp,112
    80001548:	00008067          	ret

000000008000154c <itoa>:
    8000154c:	00a00793          	li	a5,10
    80001550:	00050693          	mv	a3,a0
    80001554:	00058513          	mv	a0,a1
    80001558:	0af60a63          	beq	a2,a5,8000160c <itoa+0xc0>
    8000155c:	0006869b          	sext.w	a3,a3
    80001560:	00000813          	li	a6,0
    80001564:	0006061b          	sext.w	a2,a2
    80001568:	010508b3          	add	a7,a0,a6
    8000156c:	00001597          	auipc	a1,0x1
    80001570:	59c58593          	addi	a1,a1,1436 # 80002b08 <index>
    80001574:	02c6f7bb          	remuw	a5,a3,a2
    80001578:	00188893          	addi	a7,a7,1
    8000157c:	0006831b          	sext.w	t1,a3
    80001580:	00080713          	mv	a4,a6
    80001584:	0018081b          	addiw	a6,a6,1
    80001588:	02079793          	slli	a5,a5,0x20
    8000158c:	0207d793          	srli	a5,a5,0x20
    80001590:	00f587b3          	add	a5,a1,a5
    80001594:	0007c783          	lbu	a5,0(a5)
    80001598:	02c6d6bb          	divuw	a3,a3,a2
    8000159c:	fef88fa3          	sb	a5,-1(a7)
    800015a0:	fcc37ae3          	bgeu	t1,a2,80001574 <itoa+0x28>
    800015a4:	01050833          	add	a6,a0,a6
    800015a8:	00080023          	sb	zero,0(a6)
    800015ac:	00054783          	lbu	a5,0(a0)
    800015b0:	40175613          	srai	a2,a4,0x1
    800015b4:	4017569b          	sraiw	a3,a4,0x1
    800015b8:	fd378793          	addi	a5,a5,-45
    800015bc:	0017b593          	seqz	a1,a5
    800015c0:	04b64463          	blt	a2,a1,80001608 <itoa+0xbc>
    800015c4:	40b686bb          	subw	a3,a3,a1
    800015c8:	00b7073b          	addw	a4,a4,a1
    800015cc:	00150813          	addi	a6,a0,1
    800015d0:	02069693          	slli	a3,a3,0x20
    800015d4:	40b70733          	sub	a4,a4,a1
    800015d8:	00b80833          	add	a6,a6,a1
    800015dc:	0206d693          	srli	a3,a3,0x20
    800015e0:	00b507b3          	add	a5,a0,a1
    800015e4:	00e50733          	add	a4,a0,a4
    800015e8:	00d80833          	add	a6,a6,a3
    800015ec:	00074603          	lbu	a2,0(a4)
    800015f0:	0007c683          	lbu	a3,0(a5)
    800015f4:	00178793          	addi	a5,a5,1
    800015f8:	fff70713          	addi	a4,a4,-1
    800015fc:	fec78fa3          	sb	a2,-1(a5)
    80001600:	00d700a3          	sb	a3,1(a4)
    80001604:	fef814e3          	bne	a6,a5,800015ec <itoa+0xa0>
    80001608:	00008067          	ret
    8000160c:	f406d8e3          	bgez	a3,8000155c <itoa+0x10>
    80001610:	02d00793          	li	a5,45
    80001614:	40d006bb          	negw	a3,a3
    80001618:	00f58023          	sb	a5,0(a1)
    8000161c:	00100813          	li	a6,1
    80001620:	f45ff06f          	j	80001564 <itoa+0x18>
